target datalayout = "e-m:e-p270:32:32-p271:32:32-p272:64:64-i64:64-i128:128-f80:128-n8:16:32:64-S128"
target triple = "x86_64-pc-linux-gnu"

%struct.darktable_t = type { %struct.dt_codepath_t, i32, i32, ptr, ptr, ptr, ptr, ptr, ptr, ptr, ptr, ptr, ptr, ptr, ptr, ptr, ptr, ptr, ptr, ptr, ptr, ptr, ptr, ptr, ptr, ptr, ptr, ptr, ptr, ptr, [64 x %struct.dt_pthread_mutex_t], %struct.dt_pthread_mutex_t, %struct.dt_pthread_mutex_t, %struct.dt_pthread_mutex_t, %struct.dt_pthread_mutex_t, %struct.dt_pthread_mutex_t, ptr, ptr, ptr, ptr, ptr, ptr, ptr, ptr, ptr, ptr, ptr, ptr, ptr, %struct.dt_lua_state_t, ptr, double, ptr, i32, [47 x i32], i32, i32, ptr, ptr, %struct.dt_sys_resources_t, %struct.dt_backthumb_t, %struct.dt_gimp_t }
%struct.dt_codepath_t = type { i8, [3 x i8] }
%struct.dt_pthread_mutex_t = type { %union.pthread_mutex_t }
%union.pthread_mutex_t = type { %struct.__pthread_mutex_s }
%struct.__pthread_mutex_s = type { i32, i32, i32, i32, i32, i16, i16, %struct.__pthread_internal_list }
%struct.__pthread_internal_list = type { ptr, ptr }
%struct.dt_lua_state_t = type { i32 }
%struct.dt_sys_resources_t = type { i64, i64, ptr, ptr, i32 }
%struct.dt_backthumb_t = type { double, double, i32, i32, i32, i32 }
%struct.dt_gimp_t = type { i32, ptr, ptr, i32, i32 }

@darktable = external global %struct.darktable_t, align 8
@.str.48 = private unnamed_addr constant [129 x i8] c"generated/home/dtcxzyw/WorkSpace/Projects/compilers/llvm-opt-benchmark/bench/darktable/darktable/src/control/jobs/control_jobs.c\00", align 1
@.str.76 = private unnamed_addr constant [41 x i8] c"[sql] %s:%d, function %s(): prepare \22%s\22\00", align 1
@stderr = external global ptr, align 8
@.str.78 = private unnamed_addr constant [53 x i8] c"sqlite3 error: %s:%d, function %s(), query \22%s\22: %s\0A\00", align 1
@.str.79 = private unnamed_addr constant [41 x i8] c"sqlite3 error: %s:%d, function %s(): %s\0A\00", align 1
@__FUNCTION__._set_remove_flag = private unnamed_addr constant [17 x i8] c"_set_remove_flag\00", align 1
@.str.100 = private unnamed_addr constant [59 x i8] c"UPDATE main.images SET flags = (flags|?1) WHERE id IN (?2)\00", align 1

; Function Attrs: nounwind uwtable
define internal void @_set_remove_flag(ptr noundef %0) #0 {
  %2 = alloca ptr, align 8
  %3 = alloca ptr, align 8
  %4 = alloca i32, align 4
  %5 = alloca i32, align 4
  %6 = alloca i32, align 4
  store ptr %0, ptr %2, align 8, !tbaa !49
  call void @llvm.lifetime.start.p0(i64 8, ptr %3) #14
  store ptr null, ptr %3, align 8, !tbaa !94
  br label %7

7:                                                ; preds = %1
  br label %8

8:                                                ; preds = %7
  %9 = load i32, ptr getelementptr inbounds nuw (%struct.darktable_t, ptr @darktable, i32 0, i32 2), align 8, !tbaa !85
  %10 = and i32 256, %9
  %11 = icmp ne i32 %10, 0
  br i1 %11, label %12, label %18

12:                                               ; preds = %8
  %13 = load i32, ptr getelementptr inbounds nuw (%struct.darktable_t, ptr @darktable, i32 0, i32 2), align 8, !tbaa !85
  %14 = xor i32 %13, -1
  %15 = and i32 0, %14
  %16 = icmp ne i32 %15, 0
  br i1 %16, label %18, label %17

17:                                               ; preds = %12
  call void (ptr, ...) @dt_print_ext(ptr noundef @.str.76, ptr noundef @.str.48, i32 noundef 854, ptr noundef @__FUNCTION__._set_remove_flag, ptr noundef @.str.100)
  br label %18

18:                                               ; preds = %17, %12, %8
  br label %19

19:                                               ; preds = %18
  br label %20

20:                                               ; preds = %19
  call void @llvm.lifetime.start.p0(i64 4, ptr %4) #14
  %21 = load ptr, ptr getelementptr inbounds nuw (%struct.darktable_t, ptr @darktable, i32 0, i32 18), align 8, !tbaa !96
  %22 = call ptr @dt_database_get(ptr noundef %21)
  %23 = call i32 @sqlite3_prepare_v2(ptr noundef %22, ptr noundef @.str.100, i32 noundef -1, ptr noundef %3, ptr noundef null)
  store i32 %23, ptr %4, align 4, !tbaa !50
  %24 = load i32, ptr %4, align 4, !tbaa !50
  %25 = icmp ne i32 %24, 0
  br i1 %25, label %26, label %32

26:                                               ; preds = %20
  %27 = load ptr, ptr @stderr, align 8, !tbaa !97
  %28 = load ptr, ptr getelementptr inbounds nuw (%struct.darktable_t, ptr @darktable, i32 0, i32 18), align 8, !tbaa !96
  %29 = call ptr @dt_database_get(ptr noundef %28)
  %30 = call ptr @sqlite3_errmsg(ptr noundef %29)
  %31 = call i32 (ptr, ptr, ...) @fprintf(ptr noundef %27, ptr noundef @.str.78, ptr noundef @.str.48, i32 noundef 854, ptr noundef @__FUNCTION__._set_remove_flag, ptr noundef @.str.100, ptr noundef %30) #14
  br label %32

32:                                               ; preds = %26, %20
  call void @llvm.lifetime.end.p0(i64 4, ptr %4) #14
  br label %33

33:                                               ; preds = %32
  br label %34

34:                                               ; preds = %33
  call void @llvm.lifetime.start.p0(i64 4, ptr %5) #14
  %35 = load ptr, ptr %3, align 8, !tbaa !94
  %36 = call i32 @sqlite3_bind_int(ptr noundef %35, i32 noundef 1, i32 noundef 256)
  store i32 %36, ptr %5, align 4, !tbaa !50
  %37 = load i32, ptr %5, align 4, !tbaa !50
  %38 = icmp ne i32 %37, 0
  br i1 %38, label %39, label %45

39:                                               ; preds = %34
  %40 = load ptr, ptr @stderr, align 8, !tbaa !97
  %41 = load ptr, ptr getelementptr inbounds nuw (%struct.darktable_t, ptr @darktable, i32 0, i32 18), align 8, !tbaa !96
  %42 = call ptr @dt_database_get(ptr noundef %41)
  %43 = call ptr @sqlite3_errmsg(ptr noundef %42)
  %44 = call i32 (ptr, ptr, ...) @fprintf(ptr noundef %40, ptr noundef @.str.79, ptr noundef @.str.48, i32 noundef 855, ptr noundef @__FUNCTION__._set_remove_flag, ptr noundef %43) #14
  br label %45

45:                                               ; preds = %39, %34
  call void @llvm.lifetime.end.p0(i64 4, ptr %5) #14
  call void @llvm.lifetime.start.p0(i64 4, ptr %6) #14
  %46 = load ptr, ptr %3, align 8, !tbaa !94
  %47 = load ptr, ptr %2, align 8, !tbaa !49
  %48 = call i32 @sqlite3_bind_text(ptr noundef %46, i32 noundef 2, ptr noundef %47, i32 noundef -1, ptr noundef null)
  store i32 %48, ptr %6, align 4, !tbaa !50
  %49 = load i32, ptr %6, align 4, !tbaa !50
  %50 = icmp ne i32 %49, 0
  br i1 %50, label %51, label %57

51:                                               ; preds = %45
  %52 = load ptr, ptr @stderr, align 8, !tbaa !97
  %53 = load ptr, ptr getelementptr inbounds nuw (%struct.darktable_t, ptr @darktable, i32 0, i32 18), align 8, !tbaa !96
  %54 = call ptr @dt_database_get(ptr noundef %53)
  %55 = call ptr @sqlite3_errmsg(ptr noundef %54)
  %56 = call i32 (ptr, ptr, ...) @fprintf(ptr noundef %52, ptr noundef @.str.79, ptr noundef @.str.48, i32 noundef 856, ptr noundef @__FUNCTION__._set_remove_flag, ptr noundef %55) #14
  br label %57

57:                                               ; preds = %51, %45
  call void @llvm.lifetime.end.p0(i64 4, ptr %6) #14
  %58 = load ptr, ptr %3, align 8, !tbaa !94
  %59 = call i32 @sqlite3_step(ptr noundef %58)
  %60 = load ptr, ptr %3, align 8, !tbaa !94
  %61 = call i32 @sqlite3_finalize(ptr noundef %60)
  call void @llvm.lifetime.end.p0(i64 8, ptr %3) #14
  ret void
}