; Function Attrs: nounwind uwtable
define internal fastcc void @_set_remove_flag(ptr noundef %0) unnamed_addr #0 {
  %2 = alloca ptr, align 8
  call void @llvm.lifetime.start.p0(i64 8, ptr nonnull %2) #17
  store ptr null, ptr %2, align 8, !tbaa !82
  %3 = load i32, ptr getelementptr inbounds nuw (i8, ptr @darktable, i64 8), align 8, !tbaa !77
  %4 = and i32 %3, 256
  %.not = icmp eq i32 %4, 0
  br i1 %.not, label %6, label %5

5:                                                ; preds = %1
  tail call void (ptr, ...) @dt_print_ext(ptr noundef nonnull @.str.76, ptr noundef nonnull @.str.48, i32 noundef 854, ptr noundef nonnull @__FUNCTION__._set_remove_flag, ptr noundef nonnull @.str.100) #17
  br label %6

6:                                                ; preds = %5, %1
  %7 = load ptr, ptr getelementptr inbounds nuw (i8, ptr @darktable, i64 136), align 8, !tbaa !79
  %8 = tail call ptr @dt_database_get(ptr noundef %7) #17
  %9 = call i32 @sqlite3_prepare_v2(ptr noundef %8, ptr noundef nonnull @.str.100, i32 noundef -1, ptr noundef nonnull %2, ptr noundef null) #17
  %.not3 = icmp eq i32 %9, 0
  br i1 %.not3, label %16, label %10

10:                                               ; preds = %6
  %11 = load ptr, ptr @stderr, align 8, !tbaa !80
  %12 = load ptr, ptr getelementptr inbounds nuw (i8, ptr @darktable, i64 136), align 8, !tbaa !79
  %13 = call ptr @dt_database_get(ptr noundef %12) #17
  %14 = call ptr @sqlite3_errmsg(ptr noundef %13) #17
  %15 = call i32 (ptr, ptr, ...) @fprintf(ptr noundef %11, ptr noundef nonnull @.str.78, ptr noundef nonnull @.str.48, i32 noundef 854, ptr noundef nonnull @__FUNCTION__._set_remove_flag, ptr noundef nonnull @.str.100, ptr noundef %14) #20
  br label %16

16:                                               ; preds = %10, %6
  %17 = load ptr, ptr %2, align 8, !tbaa !82
  %18 = call i32 @sqlite3_bind_int(ptr noundef %17, i32 noundef 1, i32 noundef 256) #17
  %.not4 = icmp eq i32 %18, 0
  br i1 %.not4, label %25, label %19

19:                                               ; preds = %16
  %20 = load ptr, ptr @stderr, align 8, !tbaa !80
  %21 = load ptr, ptr getelementptr inbounds nuw (i8, ptr @darktable, i64 136), align 8, !tbaa !79
  %22 = call ptr @dt_database_get(ptr noundef %21) #17
  %23 = call ptr @sqlite3_errmsg(ptr noundef %22) #17
  %24 = call i32 (ptr, ptr, ...) @fprintf(ptr noundef %20, ptr noundef nonnull @.str.79, ptr noundef nonnull @.str.48, i32 noundef 855, ptr noundef nonnull @__FUNCTION__._set_remove_flag, ptr noundef %23) #20
  br label %25

25:                                               ; preds = %19, %16
  %26 = load ptr, ptr %2, align 8, !tbaa !82
  %27 = call i32 @sqlite3_bind_text(ptr noundef %26, i32 noundef 2, ptr noundef %0, i32 noundef -1, ptr noundef null) #17
  %.not5 = icmp eq i32 %27, 0
  br i1 %.not5, label %34, label %28

28:                                               ; preds = %25
  %29 = load ptr, ptr @stderr, align 8, !tbaa !80
  %30 = load ptr, ptr getelementptr inbounds nuw (i8, ptr @darktable, i64 136), align 8, !tbaa !79
  %31 = call ptr @dt_database_get(ptr noundef %30) #17
  %32 = call ptr @sqlite3_errmsg(ptr noundef %31) #17
  %33 = call i32 (ptr, ptr, ...) @fprintf(ptr noundef %29, ptr noundef nonnull @.str.79, ptr noundef nonnull @.str.48, i32 noundef 856, ptr noundef nonnull @__FUNCTION__._set_remove_flag, ptr noundef %32) #20
  br label %34

34:                                               ; preds = %28, %25
  %35 = load ptr, ptr %2, align 8, !tbaa !82
  %36 = call i32 @sqlite3_step(ptr noundef %35) #17
  %37 = load ptr, ptr %2, align 8, !tbaa !82
  %38 = call i32 @sqlite3_finalize(ptr noundef %37) #17
  call void @llvm.lifetime.end.p0(i64 8, ptr nonnull %2) #17
  ret void
}